target datalayout = "e-m:e-p270:32:32-p271:32:32-p272:64:64-i64:64-i128:128-f80:128-n8:16:32:64-S128"
target triple = "x86_64-pc-linux-gnu"

%struct.gz_state = type { %struct.gzFile_s, i32, i32, ptr, i32, i32, ptr, ptr, i32, i32, i64, i32, i32, i32, i32, i32, i64, i32, i32, ptr, %struct.z_stream_s }
%struct.gzFile_s = type { i32, ptr, i64 }
%struct.z_stream_s = type { ptr, i32, i64, ptr, i32, i64, ptr, ptr, ptr, ptr, ptr, i32, i64, i64 }

@.str.2 = private unnamed_addr constant [34 x i8] c"string length does not fit in int\00", align 1

; Function Attrs: nounwind uwtable
define dso_local i32 @cm_zlib_gzputs(ptr noundef %0, ptr noundef %1) #0 {
  %3 = alloca i32, align 4
  %4 = alloca ptr, align 8
  %5 = alloca ptr, align 8
  %6 = alloca i64, align 8
  %7 = alloca i64, align 8
  %8 = alloca ptr, align 8
  %9 = alloca i32, align 4
  store ptr %0, ptr %4, align 8, !tbaa !4
  store ptr %1, ptr %5, align 8, !tbaa !37
  call void @llvm.lifetime.start.p0(i64 8, ptr %6) #10
  call void @llvm.lifetime.start.p0(i64 8, ptr %7) #10
  call void @llvm.lifetime.start.p0(i64 8, ptr %8) #10
  %10 = load ptr, ptr %4, align 8, !tbaa !4
  %11 = icmp eq ptr %10, null
  br i1 %11, label %12, label %13

12:                                               ; preds = %2
  store i32 -1, ptr %3, align 4
  store i32 1, ptr %9, align 4
  br label %53

13:                                               ; preds = %2
  %14 = load ptr, ptr %4, align 8, !tbaa !4
  store ptr %14, ptr %8, align 8, !tbaa !9
  %15 = load ptr, ptr %8, align 8, !tbaa !9
  %16 = getelementptr inbounds nuw %struct.gz_state, ptr %15, i32 0, i32 1
  %17 = load i32, ptr %16, align 8, !tbaa !12
  %18 = icmp ne i32 %17, 31153
  br i1 %18, label %24, label %19

19:                                               ; preds = %13
  %20 = load ptr, ptr %8, align 8, !tbaa !9
  %21 = getelementptr inbounds nuw %struct.gz_state, ptr %20, i32 0, i32 18
  %22 = load i32, ptr %21, align 4, !tbaa !19
  %23 = icmp ne i32 %22, 0
  br i1 %23, label %24, label %25

24:                                               ; preds = %19, %13
  store i32 -1, ptr %3, align 4
  store i32 1, ptr %9, align 4
  br label %53

25:                                               ; preds = %19
  %26 = load ptr, ptr %5, align 8, !tbaa !37
  %27 = call i64 @strlen(ptr noundef %26) #11
  store i64 %27, ptr %6, align 8, !tbaa !20
  %28 = load i64, ptr %6, align 8, !tbaa !20
  %29 = trunc i64 %28 to i32
  %30 = icmp slt i32 %29, 0
  br i1 %30, label %37, label %31

31:                                               ; preds = %25
  %32 = load i64, ptr %6, align 8, !tbaa !20
  %33 = trunc i64 %32 to i32
  %34 = zext i32 %33 to i64
  %35 = load i64, ptr %6, align 8, !tbaa !20
  %36 = icmp ne i64 %34, %35
  br i1 %36, label %37, label %39

37:                                               ; preds = %31, %25
  %38 = load ptr, ptr %8, align 8, !tbaa !9
  call void @cm_zlib_gz_error(ptr noundef %38, i32 noundef -2, ptr noundef @.str.2)
  store i32 -1, ptr %3, align 4
  store i32 1, ptr %9, align 4
  br label %53

39:                                               ; preds = %31
  %40 = load ptr, ptr %8, align 8, !tbaa !9
  %41 = load ptr, ptr %5, align 8, !tbaa !37
  %42 = load i64, ptr %6, align 8, !tbaa !20
  %43 = call i64 @gz_write(ptr noundef %40, ptr noundef %41, i64 noundef %42)
  store i64 %43, ptr %7, align 8, !tbaa !20
  %44 = load i64, ptr %7, align 8, !tbaa !20
  %45 = load i64, ptr %6, align 8, !tbaa !20
  %46 = icmp ult i64 %44, %45
  br i1 %46, label %47, label %48

47:                                               ; preds = %39
  br label %51

48:                                               ; preds = %39
  %49 = load i64, ptr %6, align 8, !tbaa !20
  %50 = trunc i64 %49 to i32
  br label %51

51:                                               ; preds = %48, %47
  %52 = phi i32 [ -1, %47 ], [ %50, %48 ]
  store i32 %52, ptr %3, align 4
  store i32 1, ptr %9, align 4
  br label %53

53:                                               ; preds = %51, %37, %24, %12
  call void @llvm.lifetime.end.p0(i64 8, ptr %8) #10
  call void @llvm.lifetime.end.p0(i64 8, ptr %7) #10
  call void @llvm.lifetime.end.p0(i64 8, ptr %6) #10
  %54 = load i32, ptr %3, align 4
  ret i32 %54
}